target datalayout = "e-m:e-p270:32:32-p271:32:32-p272:64:64-i64:64-i128:128-f80:128-n8:16:32:64-S128"
target triple = "x86_64-pc-linux-gnu"

%struct.H5O_loc_t = type { ptr, i64, i8 }

; Function Attrs: nounwind uwtable
define i32 @H5O_loc_hold_file(ptr noundef %0) #0 {
  %2 = alloca ptr, align 8
  store ptr %0, ptr %2, align 8
  %3 = load ptr, ptr %2, align 8
  %4 = getelementptr inbounds %struct.H5O_loc_t, ptr %3, i32 0, i32 2
  %5 = load i8, ptr %4, align 8
  %6 = trunc i8 %5 to i1
  br i1 %6, label %14, label %7

7:                                                ; preds = %1
  %8 = load ptr, ptr %2, align 8
  %9 = getelementptr inbounds %struct.H5O_loc_t, ptr %8, i32 0, i32 0
  %10 = load ptr, ptr %9, align 8
  %11 = call i32 @H5F_incr_nopen_objs(ptr noundef %10)
  %12 = load ptr, ptr %2, align 8
  %13 = getelementptr inbounds %struct.H5O_loc_t, ptr %12, i32 0, i32 2
  store i8 1, ptr %13, align 8
  br label %14

14:                                               ; preds = %7, %1
  ret i32 0
}