; Function Attrs: nounwind uwtable
define noundef i32 @H5O_loc_hold_file(ptr nocapture noundef %0) local_unnamed_addr #1 {
  %2 = getelementptr inbounds i8, ptr %0, i64 16
  %3 = load i8, ptr %2, align 8
  %4 = trunc i8 %3 to i1
  br i1 %4, label %8, label %5

5:                                                ; preds = %1
  %6 = load ptr, ptr %0, align 8
  %7 = tail call i32 @H5F_incr_nopen_objs(ptr noundef %6) #11
  store i8 1, ptr %2, align 8
  br label %8

8:                                                ; preds = %5, %1
  ret i32 0
}